Certificate:
    Data:
        Version: 3 (0x2)
        Serial Number:
            0b:e8:b5:4e:23:89:8c:60:aa:1e:3a:05:64:2e:fe:f4
        Signature Algorithm: sha256WithRSAEncryption
        Issuer: CN=ChangeMe
        Validity
            Not Before: Feb  3 05:15:33 2020 GMT
            Not After : Jan 18 05:15:33 2023 GMT
        Subject: CN=ChangeMe
        Subject Public Key Info:
            Public Key Algorithm: rsaEncryption
                RSA Public-Key: (2048 bit)
                Modulus:
                    00:be:c6:99:84:43:e1:85:c0:40:f3:19:c0:1a:d5:
                    b0:82:ca:7d:a0:f6:02:e2:cb:bd:a6:6b:ca:b5:6d:
                    8e:10:90:69:ac:5f:8f:18:a9:f5:f9:95:bc:6d:d9:
                    54:f6:01:b6:97:28:7f:66:36:73:bd:d4:90:7f:f5:
                    9a:30:27:eb:ba:c6:e0:f8:7a:c4:97:91:61:c6:84:
                    77:d0:ae:8f:0d:74:f2:f3:2d:47:b7:7e:26:b8:4b:
                    5d:fb:73:dc:a3:e6:77:f5:76:d1:55:0d:01:a1:33:
                    f1:4f:f6:1f:a2:0b:72:e2:af:ad:f6:c9:44:54:0c:
                    9c:7e:88:bb:cf:28:15:da:93:be:82:a7:1e:e5:d3:
                    0f:59:af:74:97:c2:4c:cc:31:12:c7:e1:3d:5f:d4:
                    1e:a1:52:a3:09:c9:d0:15:c8:07:e9:16:3e:c3:53:
                    8b:fa:50:23:b5:9f:75:78:d6:30:f5:d2:44:c2:0b:
                    cd:8b:41:6c:e0:30:0d:2f:41:bd:d6:13:16:2f:44:
                    42:7e:4e:ec:e0:b5:7b:29:c1:50:f6:c8:95:92:f6:
                    df:02:8a:36:a2:93:c8:58:f3:ba:20:0b:fe:e2:2e:
                    a2:f5:cb:91:b1:d5:69:f9:5f:a6:06:85:eb:69:83:
                    b8:17:d9:77:e6:45:68:5f:10:81:79:9b:ad:e5:1f:
                    fb:33
                Exponent: 65537 (0x10001)
        X509v3 extensions:
            X509v3 Basic Constraints: 
                CA:FALSE
            X509v3 Subject Key Identifier: 
                8C:45:F3:4C:C4:9F:CF:E1:CB:0B:1B:DA:F5:8B:29:BC:71:B9:10:79
            X509v3 Authority Key Identifier: 
                keyid:96:AE:9E:0A:A2:16:68:60:04:22:B9:9B:BF:EA:2B:14:39:B9:84:A3
                DirName:/CN=ChangeMe
                serial:28:77:BC:1D:A8:AC:22:9F:62:2B:B0:68:5A:B1:77:3E:B5:84:4F:B3

            X509v3 Extended Key Usage: 
                TLS Web Server Authentication
            X509v3 Key Usage: 
                Digital Signature, Key Encipherment
            X509v3 Subject Alternative Name: 
                DNS:ChangeMe
    Signature Algorithm: sha256WithRSAEncryption
         1f:6e:74:86:74:5d:b8:09:21:16:72:e0:29:31:67:66:be:92:
         c8:31:71:9c:1d:98:df:1e:f2:e9:1a:b5:32:23:d3:75:25:94:
         5b:ab:95:06:77:40:d5:57:9c:e8:d6:af:61:92:fb:a2:6f:33:
         ca:99:1d:b0:5e:88:98:96:a2:8b:22:08:a6:91:0b:a6:88:f3:
         e1:28:3f:2a:cc:f7:b3:86:45:1c:f1:02:16:29:1e:e0:9f:60:
         6b:4c:a4:2a:b7:b0:f7:3e:7f:97:59:03:63:e9:b1:86:03:f3:
         6a:a6:91:ad:68:82:12:48:9b:9e:c8:95:60:41:e9:5b:a2:83:
         f8:3d:6e:29:68:38:b8:87:9d:d4:73:11:fc:fb:a2:c8:0e:27:
         d7:dd:ce:b3:67:5b:25:a4:8f:34:d3:17:17:3a:27:90:ec:10:
         02:cc:91:bd:1d:0d:4b:27:2e:4c:0e:df:74:c2:6a:41:b0:ed:
         99:4a:7d:79:80:8b:e8:82:24:ba:99:ae:f0:49:29:12:76:64:
         5a:ca:40:a8:3f:51:e2:87:71:b1:02:93:9e:2f:3b:bb:32:99:
         ef:01:99:ca:04:6c:91:e6:e0:3f:b6:42:75:9d:27:b0:9a:49:
         f5:90:af:1f:04:c9:fc:ca:77:55:94:23:c4:98:66:81:bc:03:
         ae:5d:41:ab
-----BEGIN CERTIFICATE-----
MIIDZTCCAk2gAwIBAgIQC+i1TiOJjGCqHjoFZC7+9DANBgkqhkiG9w0BAQsFADAT
MREwDwYDVQQDDAhDaGFuZ2VNZTAeFw0yMDAyMDMwNTE1MzNaFw0yMzAxMTgwNTE1
MzNaMBMxETAPBgNVBAMMCENoYW5nZU1lMIIBIjANBgkqhkiG9w0BAQEFAAOCAQ8A
MIIBCgKCAQEAvsaZhEPhhcBA8xnAGtWwgsp9oPYC4su9pmvKtW2OEJBprF+PGKn1
+ZW8bdlU9gG2lyh/ZjZzvdSQf/WaMCfrusbg+HrEl5FhxoR30K6PDXTy8y1Ht34m
uEtd+3Pco+Z39XbRVQ0BoTPxT/Yfogty4q+t9slEVAycfoi7zygV2pO+gqce5dMP
Wa90l8JMzDESx+E9X9QeoVKjCcnQFcgH6RY+w1OL+lAjtZ91eNYw9dJEwgvNi0Fs
4DANL0G91hMWL0RCfk7s4LV7KcFQ9siVkvbfAoo2opPIWPO6IAv+4i6i9cuRsdVp
+V+mBoXraYO4F9l35kVoXxCBeZut5R/7MwIDAQABo4G0MIGxMAkGA1UdEwQCMAAw
HQYDVR0OBBYEFIxF80zEn8/hywsb2vWLKbxxuRB5ME4GA1UdIwRHMEWAFJaungqi
FmhgBCK5m7/qKxQ5uYSjoRekFTATMREwDwYDVQQDDAhDaGFuZ2VNZYIUKHe8Hais
Ip9iK7BoWrF3PrWET7MwEwYDVR0lBAwwCgYIKwYBBQUHAwEwCwYDVR0PBAQDAgWg
MBMGA1UdEQQMMAqCCENoYW5nZU1lMA0GCSqGSIb3DQEBCwUAA4IBAQAfbnSGdF24
CSEWcuApMWdmvpLIMXGcHZjfHvLpGrUyI9N1JZRbq5UGd0DVV5zo1q9hkvuibzPK
mR2wXoiYlqKLIgimkQumiPPhKD8qzPezhkUc8QIWKR7gn2BrTKQqt7D3Pn+XWQNj
6bGGA/NqppGtaIISSJueyJVgQelbooP4PW4paDi4h53UcxH8+6LIDifX3c6zZ1sl
pI800xcXOieQ7BACzJG9HQ1LJy5MDt90wmpBsO2ZSn15gIvogiS6ma7wSSkSdmRa
ykCoP1Hih3GxApOeLzu7MpnvAZnKBGyR5uA/tkJ1nSewmkn1kK8fBMn8yndVlCPE
mGaBvAOuXUGr
-----END CERTIFICATE-----
